target datalayout = "e-m:e-p270:32:32-p271:32:32-p272:64:64-i64:64-i128:128-f80:128-n8:16:32:64-S128"
target triple = "x86_64-pc-linux-gnu"

; Function Attrs: alwaysinline nounwind willreturn memory(none) uwtable
define internal zeroext i8 @av_clip_uint8_c(i32 noundef %0) #3 {
  %2 = alloca i8, align 1
  %3 = alloca i32, align 4
  store i32 %0, ptr %3, align 4, !tbaa !15
  %4 = load i32, ptr %3, align 4, !tbaa !15
  %5 = and i32 %4, -256
  %6 = icmp ne i32 %5, 0
  br i1 %6, label %7, label %12

7:                                                ; preds = %1
  %8 = load i32, ptr %3, align 4, !tbaa !15
  %9 = xor i32 %8, -1
  %10 = ashr i32 %9, 31
  %11 = trunc i32 %10 to i8
  store i8 %11, ptr %2, align 1
  br label %15

12:                                               ; preds = %1
  %13 = load i32, ptr %3, align 4, !tbaa !15
  %14 = trunc i32 %13 to i8
  store i8 %14, ptr %2, align 1
  br label %15

15:                                               ; preds = %12, %7
  %16 = load i8, ptr %2, align 1
  ret i8 %16
}

; Function Attrs: nounwind uwtable
define internal void @tm_8x8_c(ptr noundef %0, i64 noundef %1, ptr noundef %2, ptr noundef %3) #1 {
  %5 = alloca ptr, align 8
  %6 = alloca i64, align 8
  %7 = alloca ptr, align 8
  %8 = alloca ptr, align 8
  %9 = alloca ptr, align 8
  %10 = alloca ptr, align 8
  %11 = alloca ptr, align 8
  %12 = alloca i32, align 4
  %13 = alloca i32, align 4
  %14 = alloca i32, align 4
  store ptr %0, ptr %5, align 8, !tbaa !10
  store i64 %1, ptr %6, align 8, !tbaa !12
  store ptr %2, ptr %7, align 8, !tbaa !10
  store ptr %3, ptr %8, align 8, !tbaa !10
  call void @llvm.lifetime.start.p0(i64 8, ptr %9) #10
  %15 = load ptr, ptr %5, align 8, !tbaa !10
  store ptr %15, ptr %9, align 8, !tbaa !10
  call void @llvm.lifetime.start.p0(i64 8, ptr %10) #10
  %16 = load ptr, ptr %7, align 8, !tbaa !10
  store ptr %16, ptr %10, align 8, !tbaa !10
  call void @llvm.lifetime.start.p0(i64 8, ptr %11) #10
  %17 = load ptr, ptr %8, align 8, !tbaa !10
  store ptr %17, ptr %11, align 8, !tbaa !10
  call void @llvm.lifetime.start.p0(i64 4, ptr %12) #10
  call void @llvm.lifetime.start.p0(i64 4, ptr %13) #10
  %18 = load ptr, ptr %11, align 8, !tbaa !10
  %19 = getelementptr inbounds i8, ptr %18, i64 -1
  %20 = load i8, ptr %19, align 1, !tbaa !14
  %21 = zext i8 %20 to i32
  store i32 %21, ptr %13, align 4, !tbaa !15
  %22 = load i64, ptr %6, align 8, !tbaa !12
  %23 = udiv i64 %22, 1
  store i64 %23, ptr %6, align 8, !tbaa !12
  store i32 0, ptr %12, align 4, !tbaa !15
  br label %24

24:                                               ; preds = %112, %4
  %25 = load i32, ptr %12, align 4, !tbaa !15
  %26 = icmp slt i32 %25, 8
  br i1 %26, label %27, label %115

27:                                               ; preds = %24
  call void @llvm.lifetime.start.p0(i64 4, ptr %14) #10
  %28 = load ptr, ptr %10, align 8, !tbaa !10
  %29 = load i32, ptr %12, align 4, !tbaa !15
  %30 = sub nsw i32 7, %29
  %31 = sext i32 %30 to i64
  %32 = getelementptr inbounds i8, ptr %28, i64 %31
  %33 = load i8, ptr %32, align 1, !tbaa !14
  %34 = zext i8 %33 to i32
  %35 = load i32, ptr %13, align 4, !tbaa !15
  %36 = sub nsw i32 %34, %35
  store i32 %36, ptr %14, align 4, !tbaa !15
  %37 = load ptr, ptr %11, align 8, !tbaa !10
  %38 = getelementptr inbounds i8, ptr %37, i64 0
  %39 = load i8, ptr %38, align 1, !tbaa !14
  %40 = zext i8 %39 to i32
  %41 = load i32, ptr %14, align 4, !tbaa !15
  %42 = add nsw i32 %40, %41
  %43 = call zeroext i8 @av_clip_uint8_c(i32 noundef %42) #11
  %44 = load ptr, ptr %9, align 8, !tbaa !10
  %45 = getelementptr inbounds i8, ptr %44, i64 0
  store i8 %43, ptr %45, align 1, !tbaa !14
  %46 = load ptr, ptr %11, align 8, !tbaa !10
  %47 = getelementptr inbounds i8, ptr %46, i64 1
  %48 = load i8, ptr %47, align 1, !tbaa !14
  %49 = zext i8 %48 to i32
  %50 = load i32, ptr %14, align 4, !tbaa !15
  %51 = add nsw i32 %49, %50
  %52 = call zeroext i8 @av_clip_uint8_c(i32 noundef %51) #11
  %53 = load ptr, ptr %9, align 8, !tbaa !10
  %54 = getelementptr inbounds i8, ptr %53, i64 1
  store i8 %52, ptr %54, align 1, !tbaa !14
  %55 = load ptr, ptr %11, align 8, !tbaa !10
  %56 = getelementptr inbounds i8, ptr %55, i64 2
  %57 = load i8, ptr %56, align 1, !tbaa !14
  %58 = zext i8 %57 to i32
  %59 = load i32, ptr %14, align 4, !tbaa !15
  %60 = add nsw i32 %58, %59
  %61 = call zeroext i8 @av_clip_uint8_c(i32 noundef %60) #11
  %62 = load ptr, ptr %9, align 8, !tbaa !10
  %63 = getelementptr inbounds i8, ptr %62, i64 2
  store i8 %61, ptr %63, align 1, !tbaa !14
  %64 = load ptr, ptr %11, align 8, !tbaa !10
  %65 = getelementptr inbounds i8, ptr %64, i64 3
  %66 = load i8, ptr %65, align 1, !tbaa !14
  %67 = zext i8 %66 to i32
  %68 = load i32, ptr %14, align 4, !tbaa !15
  %69 = add nsw i32 %67, %68
  %70 = call zeroext i8 @av_clip_uint8_c(i32 noundef %69) #11
  %71 = load ptr, ptr %9, align 8, !tbaa !10
  %72 = getelementptr inbounds i8, ptr %71, i64 3
  store i8 %70, ptr %72, align 1, !tbaa !14
  %73 = load ptr, ptr %11, align 8, !tbaa !10
  %74 = getelementptr inbounds i8, ptr %73, i64 4
  %75 = load i8, ptr %74, align 1, !tbaa !14
  %76 = zext i8 %75 to i32
  %77 = load i32, ptr %14, align 4, !tbaa !15
  %78 = add nsw i32 %76, %77
  %79 = call zeroext i8 @av_clip_uint8_c(i32 noundef %78) #11
  %80 = load ptr, ptr %9, align 8, !tbaa !10
  %81 = getelementptr inbounds i8, ptr %80, i64 4
  store i8 %79, ptr %81, align 1, !tbaa !14
  %82 = load ptr, ptr %11, align 8, !tbaa !10
  %83 = getelementptr inbounds i8, ptr %82, i64 5
  %84 = load i8, ptr %83, align 1, !tbaa !14
  %85 = zext i8 %84 to i32
  %86 = load i32, ptr %14, align 4, !tbaa !15
  %87 = add nsw i32 %85, %86
  %88 = call zeroext i8 @av_clip_uint8_c(i32 noundef %87) #11
  %89 = load ptr, ptr %9, align 8, !tbaa !10
  %90 = getelementptr inbounds i8, ptr %89, i64 5
  store i8 %88, ptr %90, align 1, !tbaa !14
  %91 = load ptr, ptr %11, align 8, !tbaa !10
  %92 = getelementptr inbounds i8, ptr %91, i64 6
  %93 = load i8, ptr %92, align 1, !tbaa !14
  %94 = zext i8 %93 to i32
  %95 = load i32, ptr %14, align 4, !tbaa !15
  %96 = add nsw i32 %94, %95
  %97 = call zeroext i8 @av_clip_uint8_c(i32 noundef %96) #11
  %98 = load ptr, ptr %9, align 8, !tbaa !10
  %99 = getelementptr inbounds i8, ptr %98, i64 6
  store i8 %97, ptr %99, align 1, !tbaa !14
  %100 = load ptr, ptr %11, align 8, !tbaa !10
  %101 = getelementptr inbounds i8, ptr %100, i64 7
  %102 = load i8, ptr %101, align 1, !tbaa !14
  %103 = zext i8 %102 to i32
  %104 = load i32, ptr %14, align 4, !tbaa !15
  %105 = add nsw i32 %103, %104
  %106 = call zeroext i8 @av_clip_uint8_c(i32 noundef %105) #11
  %107 = load ptr, ptr %9, align 8, !tbaa !10
  %108 = getelementptr inbounds i8, ptr %107, i64 7
  store i8 %106, ptr %108, align 1, !tbaa !14
  %109 = load i64, ptr %6, align 8, !tbaa !12
  %110 = load ptr, ptr %9, align 8, !tbaa !10
  %111 = getelementptr inbounds i8, ptr %110, i64 %109
  store ptr %111, ptr %9, align 8, !tbaa !10
  call void @llvm.lifetime.end.p0(i64 4, ptr %14) #10
  br label %112

112:                                              ; preds = %27
  %113 = load i32, ptr %12, align 4, !tbaa !15
  %114 = add nsw i32 %113, 1
  store i32 %114, ptr %12, align 4, !tbaa !15
  br label %24, !llvm.loop !38

115:                                              ; preds = %24
  call void @llvm.lifetime.end.p0(i64 4, ptr %13) #10
  call void @llvm.lifetime.end.p0(i64 4, ptr %12) #10
  call void @llvm.lifetime.end.p0(i64 8, ptr %11) #10
  call void @llvm.lifetime.end.p0(i64 8, ptr %10) #10
  call void @llvm.lifetime.end.p0(i64 8, ptr %9) #10
  ret void
}