; Function Attrs: nofree norecurse nosync nounwind memory(argmem: readwrite) uwtable
define internal void @tm_8x8_c(ptr noundef writeonly captures(none) %0, i64 noundef %1, ptr noundef readonly captures(none) %2, ptr noundef readonly captures(none) %3) #2 {
  %5 = getelementptr inbounds i8, ptr %3, i64 -1
  %6 = load i8, ptr %5, align 1, !tbaa !8
  %7 = zext i8 %6 to i32
  %8 = getelementptr inbounds nuw i8, ptr %3, i64 1
  %9 = getelementptr inbounds nuw i8, ptr %3, i64 2
  %10 = getelementptr inbounds nuw i8, ptr %3, i64 3
  %11 = getelementptr inbounds nuw i8, ptr %3, i64 4
  %12 = getelementptr inbounds nuw i8, ptr %3, i64 5
  %13 = getelementptr inbounds nuw i8, ptr %3, i64 6
  %14 = getelementptr inbounds nuw i8, ptr %3, i64 7
  br label %15

15:                                               ; preds = %4, %15
  %indvars.iv = phi i64 [ 0, %4 ], [ %indvars.iv.next, %15 ]
  %.058 = phi ptr [ %0, %4 ], [ %68, %15 ]
  %16 = sub nuw nsw i64 7, %indvars.iv
  %17 = getelementptr inbounds nuw i8, ptr %2, i64 %16
  %18 = load i8, ptr %17, align 1, !tbaa !8
  %19 = zext i8 %18 to i32
  %20 = sub nsw i32 %19, %7
  %21 = load i8, ptr %3, align 1, !tbaa !8
  %22 = zext i8 %21 to i32
  %23 = add nsw i32 %20, %22
  %.not.i = icmp ult i32 %23, 256
  %isnotneg.i = icmp sgt i32 %23, -1
  %24 = sext i1 %isnotneg.i to i8
  %25 = trunc nuw i32 %23 to i8
  %.0.i = select i1 %.not.i, i8 %25, i8 %24
  store i8 %.0.i, ptr %.058, align 1, !tbaa !8
  %26 = load i8, ptr %8, align 1, !tbaa !8
  %27 = zext i8 %26 to i32
  %28 = add nsw i32 %20, %27
  %.not.i36 = icmp ult i32 %28, 256
  %isnotneg.i37 = icmp sgt i32 %28, -1
  %29 = sext i1 %isnotneg.i37 to i8
  %30 = trunc nuw i32 %28 to i8
  %.0.i38 = select i1 %.not.i36, i8 %30, i8 %29
  %31 = getelementptr inbounds nuw i8, ptr %.058, i64 1
  store i8 %.0.i38, ptr %31, align 1, !tbaa !8
  %32 = load i8, ptr %9, align 1, !tbaa !8
  %33 = zext i8 %32 to i32
  %34 = add nsw i32 %20, %33
  %.not.i39 = icmp ult i32 %34, 256
  %isnotneg.i40 = icmp sgt i32 %34, -1
  %35 = sext i1 %isnotneg.i40 to i8
  %36 = trunc nuw i32 %34 to i8
  %.0.i41 = select i1 %.not.i39, i8 %36, i8 %35
  %37 = getelementptr inbounds nuw i8, ptr %.058, i64 2
  store i8 %.0.i41, ptr %37, align 1, !tbaa !8
  %38 = load i8, ptr %10, align 1, !tbaa !8
  %39 = zext i8 %38 to i32
  %40 = add nsw i32 %20, %39
  %.not.i42 = icmp ult i32 %40, 256
  %isnotneg.i43 = icmp sgt i32 %40, -1
  %41 = sext i1 %isnotneg.i43 to i8
  %42 = trunc nuw i32 %40 to i8
  %.0.i44 = select i1 %.not.i42, i8 %42, i8 %41
  %43 = getelementptr inbounds nuw i8, ptr %.058, i64 3
  store i8 %.0.i44, ptr %43, align 1, !tbaa !8
  %44 = load i8, ptr %11, align 1, !tbaa !8
  %45 = zext i8 %44 to i32
  %46 = add nsw i32 %20, %45
  %.not.i45 = icmp ult i32 %46, 256
  %isnotneg.i46 = icmp sgt i32 %46, -1
  %47 = sext i1 %isnotneg.i46 to i8
  %48 = trunc nuw i32 %46 to i8
  %.0.i47 = select i1 %.not.i45, i8 %48, i8 %47
  %49 = getelementptr inbounds nuw i8, ptr %.058, i64 4
  store i8 %.0.i47, ptr %49, align 1, !tbaa !8
  %50 = load i8, ptr %12, align 1, !tbaa !8
  %51 = zext i8 %50 to i32
  %52 = add nsw i32 %20, %51
  %.not.i48 = icmp ult i32 %52, 256
  %isnotneg.i49 = icmp sgt i32 %52, -1
  %53 = sext i1 %isnotneg.i49 to i8
  %54 = trunc nuw i32 %52 to i8
  %.0.i50 = select i1 %.not.i48, i8 %54, i8 %53
  %55 = getelementptr inbounds nuw i8, ptr %.058, i64 5
  store i8 %.0.i50, ptr %55, align 1, !tbaa !8
  %56 = load i8, ptr %13, align 1, !tbaa !8
  %57 = zext i8 %56 to i32
  %58 = add nsw i32 %20, %57
  %.not.i51 = icmp ult i32 %58, 256
  %isnotneg.i52 = icmp sgt i32 %58, -1
  %59 = sext i1 %isnotneg.i52 to i8
  %60 = trunc nuw i32 %58 to i8
  %.0.i53 = select i1 %.not.i51, i8 %60, i8 %59
  %61 = getelementptr inbounds nuw i8, ptr %.058, i64 6
  store i8 %.0.i53, ptr %61, align 1, !tbaa !8
  %62 = load i8, ptr %14, align 1, !tbaa !8
  %63 = zext i8 %62 to i32
  %64 = add nsw i32 %20, %63
  %.not.i54 = icmp ult i32 %64, 256
  %isnotneg.i55 = icmp sgt i32 %64, -1
  %65 = sext i1 %isnotneg.i55 to i8
  %66 = trunc nuw i32 %64 to i8
  %.0.i56 = select i1 %.not.i54, i8 %66, i8 %65
  %67 = getelementptr inbounds nuw i8, ptr %.058, i64 7
  store i8 %.0.i56, ptr %67, align 1, !tbaa !8
  %68 = getelementptr inbounds i8, ptr %.058, i64 %1
  %indvars.iv.next = add nuw nsw i64 %indvars.iv, 1
  %exitcond.not = icmp eq i64 %indvars.iv.next, 8
  br i1 %exitcond.not, label %69, label %15, !llvm.loop !30

69:                                               ; preds = %15
  ret void
}